target datalayout = "e-m:e-p270:32:32-p271:32:32-p272:64:64-i64:64-i128:128-f80:128-n8:16:32:64-S128"
target triple = "x86_64-pc-linux-gnu"

%struct.NFA = type { i32, i32, i8, i8, i8, i8, %union.anon, i32, i32, i32, i32, i32, i32, i32, [20 x i8] }
%union.anon = type { i16 }

; Function Attrs: alwaysinline nounwind uwtable
define internal signext i8 @nfaQueueExec2_i(ptr noundef %0, ptr noundef %1, i64 noundef %2) #2 {
  %4 = alloca i8, align 1
  %5 = alloca ptr, align 8
  %6 = alloca ptr, align 8
  %7 = alloca i64, align 8
  %8 = alloca i32, align 4
  %9 = alloca i32, align 4
  %10 = alloca i32, align 4
  %11 = alloca i32, align 4
  %12 = alloca i32, align 4
  store ptr %0, ptr %5, align 8
  store ptr %1, ptr %6, align 8
  store i64 %2, ptr %7, align 8
  %13 = load ptr, ptr %5, align 8
  %14 = getelementptr inbounds nuw %struct.NFA, ptr %13, i32 0, i32 2
  %15 = load i8, ptr %14, align 8
  %16 = zext i8 %15 to i32
  switch i32 %16, label %132 [
    i32 0, label %17
    i32 1, label %22
    i32 2, label %27
    i32 3, label %32
    i32 4, label %37
    i32 5, label %42
    i32 6, label %47
    i32 7, label %52
    i32 8, label %57
    i32 9, label %62
    i32 10, label %67
    i32 11, label %70
    i32 12, label %75
    i32 13, label %80
    i32 14, label %85
    i32 15, label %90
    i32 16, label %95
    i32 17, label %100
    i32 18, label %105
    i32 19, label %110
    i32 20, label %115
    i32 21, label %120
    i32 22, label %123
    i32 23, label %126
    i32 24, label %129
  ]

17:                                               ; preds = %3
  %18 = load ptr, ptr %5, align 8
  %19 = load ptr, ptr %6, align 8
  %20 = load i64, ptr %7, align 8
  %21 = call signext i8 @nfaExecLimEx32_Q2(ptr noundef %18, ptr noundef %19, i64 noundef %20)
  store i8 %21, ptr %4, align 1
  br label %134

22:                                               ; preds = %3
  %23 = load ptr, ptr %5, align 8
  %24 = load ptr, ptr %6, align 8
  %25 = load i64, ptr %7, align 8
  %26 = call signext i8 @nfaExecLimEx64_Q2(ptr noundef %23, ptr noundef %24, i64 noundef %25)
  store i8 %26, ptr %4, align 1
  br label %134

27:                                               ; preds = %3
  %28 = load ptr, ptr %5, align 8
  %29 = load ptr, ptr %6, align 8
  %30 = load i64, ptr %7, align 8
  %31 = call signext i8 @nfaExecLimEx128_Q2(ptr noundef %28, ptr noundef %29, i64 noundef %30)
  store i8 %31, ptr %4, align 1
  br label %134

32:                                               ; preds = %3
  %33 = load ptr, ptr %5, align 8
  %34 = load ptr, ptr %6, align 8
  %35 = load i64, ptr %7, align 8
  %36 = call signext i8 @nfaExecLimEx256_Q2(ptr noundef %33, ptr noundef %34, i64 noundef %35)
  store i8 %36, ptr %4, align 1
  br label %134

37:                                               ; preds = %3
  %38 = load ptr, ptr %5, align 8
  %39 = load ptr, ptr %6, align 8
  %40 = load i64, ptr %7, align 8
  %41 = call signext i8 @nfaExecLimEx384_Q2(ptr noundef %38, ptr noundef %39, i64 noundef %40)
  store i8 %41, ptr %4, align 1
  br label %134

42:                                               ; preds = %3
  %43 = load ptr, ptr %5, align 8
  %44 = load ptr, ptr %6, align 8
  %45 = load i64, ptr %7, align 8
  %46 = call signext i8 @nfaExecLimEx512_Q2(ptr noundef %43, ptr noundef %44, i64 noundef %45)
  store i8 %46, ptr %4, align 1
  br label %134

47:                                               ; preds = %3
  %48 = load ptr, ptr %5, align 8
  %49 = load ptr, ptr %6, align 8
  %50 = load i64, ptr %7, align 8
  %51 = call signext i8 @nfaExecMcClellan8_Q2(ptr noundef %48, ptr noundef %49, i64 noundef %50)
  store i8 %51, ptr %4, align 1
  br label %134

52:                                               ; preds = %3
  %53 = load ptr, ptr %5, align 8
  %54 = load ptr, ptr %6, align 8
  %55 = load i64, ptr %7, align 8
  %56 = call signext i8 @nfaExecMcClellan16_Q2(ptr noundef %53, ptr noundef %54, i64 noundef %55)
  store i8 %56, ptr %4, align 1
  br label %134

57:                                               ; preds = %3
  %58 = load ptr, ptr %5, align 8
  %59 = load ptr, ptr %6, align 8
  %60 = load i64, ptr %7, align 8
  %61 = call signext i8 @nfaExecGough8_Q2(ptr noundef %58, ptr noundef %59, i64 noundef %60)
  store i8 %61, ptr %4, align 1
  br label %134

62:                                               ; preds = %3
  %63 = load ptr, ptr %5, align 8
  %64 = load ptr, ptr %6, align 8
  %65 = load i64, ptr %7, align 8
  %66 = call signext i8 @nfaExecGough16_Q2(ptr noundef %63, ptr noundef %64, i64 noundef %65)
  store i8 %66, ptr %4, align 1
  br label %134

67:                                               ; preds = %3
  store i32 0, ptr %8, align 4
  %68 = load i32, ptr %8, align 4
  %69 = trunc i32 %68 to i8
  store i8 %69, ptr %4, align 1
  br label %134

70:                                               ; preds = %3
  %71 = load ptr, ptr %5, align 8
  %72 = load ptr, ptr %6, align 8
  %73 = load i64, ptr %7, align 8
  %74 = call signext i8 @nfaExecLbrDot_Q2(ptr noundef %71, ptr noundef %72, i64 noundef %73)
  store i8 %74, ptr %4, align 1
  br label %134

75:                                               ; preds = %3
  %76 = load ptr, ptr %5, align 8
  %77 = load ptr, ptr %6, align 8
  %78 = load i64, ptr %7, align 8
  %79 = call signext i8 @nfaExecLbrVerm_Q2(ptr noundef %76, ptr noundef %77, i64 noundef %78)
  store i8 %79, ptr %4, align 1
  br label %134

80:                                               ; preds = %3
  %81 = load ptr, ptr %5, align 8
  %82 = load ptr, ptr %6, align 8
  %83 = load i64, ptr %7, align 8
  %84 = call signext i8 @nfaExecLbrNVerm_Q2(ptr noundef %81, ptr noundef %82, i64 noundef %83)
  store i8 %84, ptr %4, align 1
  br label %134

85:                                               ; preds = %3
  %86 = load ptr, ptr %5, align 8
  %87 = load ptr, ptr %6, align 8
  %88 = load i64, ptr %7, align 8
  %89 = call signext i8 @nfaExecLbrShuf_Q2(ptr noundef %86, ptr noundef %87, i64 noundef %88)
  store i8 %89, ptr %4, align 1
  br label %134

90:                                               ; preds = %3
  %91 = load ptr, ptr %5, align 8
  %92 = load ptr, ptr %6, align 8
  %93 = load i64, ptr %7, align 8
  %94 = call signext i8 @nfaExecLbrTruf_Q2(ptr noundef %91, ptr noundef %92, i64 noundef %93)
  store i8 %94, ptr %4, align 1
  br label %134

95:                                               ; preds = %3
  %96 = load ptr, ptr %5, align 8
  %97 = load ptr, ptr %6, align 8
  %98 = load i64, ptr %7, align 8
  %99 = call signext i8 @nfaExecCastle_Q2(ptr noundef %96, ptr noundef %97, i64 noundef %98)
  store i8 %99, ptr %4, align 1
  br label %134

100:                                              ; preds = %3
  %101 = load ptr, ptr %5, align 8
  %102 = load ptr, ptr %6, align 8
  %103 = load i64, ptr %7, align 8
  %104 = call signext i8 @nfaExecSheng_Q2(ptr noundef %101, ptr noundef %102, i64 noundef %103)
  store i8 %104, ptr %4, align 1
  br label %134

105:                                              ; preds = %3
  %106 = load ptr, ptr %5, align 8
  %107 = load ptr, ptr %6, align 8
  %108 = load i64, ptr %7, align 8
  %109 = call signext i8 @nfaExecTamarama_Q2(ptr noundef %106, ptr noundef %107, i64 noundef %108)
  store i8 %109, ptr %4, align 1
  br label %134

110:                                              ; preds = %3
  %111 = load ptr, ptr %5, align 8
  %112 = load ptr, ptr %6, align 8
  %113 = load i64, ptr %7, align 8
  %114 = call signext i8 @nfaExecMcSheng8_Q2(ptr noundef %111, ptr noundef %112, i64 noundef %113)
  store i8 %114, ptr %4, align 1
  br label %134

115:                                              ; preds = %3
  %116 = load ptr, ptr %5, align 8
  %117 = load ptr, ptr %6, align 8
  %118 = load i64, ptr %7, align 8
  %119 = call signext i8 @nfaExecMcSheng16_Q2(ptr noundef %116, ptr noundef %117, i64 noundef %118)
  store i8 %119, ptr %4, align 1
  br label %134

120:                                              ; preds = %3
  store i32 0, ptr %9, align 4
  %121 = load i32, ptr %9, align 4
  %122 = trunc i32 %121 to i8
  store i8 %122, ptr %4, align 1
  br label %134

123:                                              ; preds = %3
  store i32 0, ptr %10, align 4
  %124 = load i32, ptr %10, align 4
  %125 = trunc i32 %124 to i8
  store i8 %125, ptr %4, align 1
  br label %134

126:                                              ; preds = %3
  store i32 0, ptr %11, align 4
  %127 = load i32, ptr %11, align 4
  %128 = trunc i32 %127 to i8
  store i8 %128, ptr %4, align 1
  br label %134

129:                                              ; preds = %3
  store i32 0, ptr %12, align 4
  %130 = load i32, ptr %12, align 4
  %131 = trunc i32 %130 to i8
  store i8 %131, ptr %4, align 1
  br label %134

132:                                              ; preds = %3
  br label %133

133:                                              ; preds = %132
  store i8 0, ptr %4, align 1
  br label %134

134:                                              ; preds = %133, %129, %126, %123, %120, %115, %110, %105, %100, %95, %90, %85, %80, %75, %70, %67, %62, %57, %52, %47, %42, %37, %32, %27, %22, %17
  %135 = load i8, ptr %4, align 1
  ret i8 %135
}

; Function Attrs: nounwind uwtable
define hidden signext i8 @nfaQueueExec2_raw(ptr noundef %0, ptr noundef %1, i64 noundef %2) #0 {
  %4 = alloca ptr, align 8
  %5 = alloca ptr, align 8
  %6 = alloca i64, align 8
  store ptr %0, ptr %4, align 8
  store ptr %1, ptr %5, align 8
  store i64 %2, ptr %6, align 8
  %7 = load ptr, ptr %4, align 8
  %8 = load ptr, ptr %5, align 8
  %9 = load i64, ptr %6, align 8
  %10 = call signext i8 @nfaQueueExec2_i(ptr noundef %7, ptr noundef %8, i64 noundef %9)
  ret i8 %10
}